; Function Attrs: nounwind sspstrong uwtable
define dso_local void @rb_mark_hash(ptr noundef %0) local_unnamed_addr #0 {
  %.not = icmp eq ptr %0, null
  br i1 %.not, label %4, label %2

2:                                                ; preds = %1
  %3 = tail call i32 @rb_st_foreach(ptr noundef nonnull %0, ptr noundef nonnull @pin_key_pin_value, i64 noundef 0) #7
  br label %4

4:                                                ; preds = %1, %2
  ret void
}